; Function Attrs: mustprogress uwtable
define internal void @_ZNK5faiss12_GLOBAL__N_114IVFSQScannerL2INS0_10DCTemplateINS0_13QuantizerFP16ILi1EEENS0_12SimilarityL2ILi1EEELi1EEELi0EE16scan_codes_rangeEmPKhPKlfRNS_16RangeQueryResultE(ptr nocapture noundef nonnull readonly align 8 dereferenceable(136) %0, i64 noundef %1, ptr nocapture noundef readonly %2, ptr nocapture noundef readonly %3, float noundef %4, ptr noundef nonnull align 8 dereferenceable(24) %5) unnamed_addr #0 align 2 {
  %.not18 = icmp eq i64 %1, 0
  br i1 %.not18, label %._crit_edge, label %.lr.ph

.lr.ph:                                           ; preds = %6
  %7 = getelementptr inbounds i8, ptr %0, i64 80
  %8 = getelementptr inbounds i8, ptr %0, i64 64
  %9 = getelementptr inbounds i8, ptr %0, i64 17
  %10 = getelementptr inbounds i8, ptr %0, i64 8
  %11 = getelementptr inbounds i8, ptr %0, i64 32
  br label %12

12:                                               ; preds = %.lr.ph, %52
  %.017 = phi ptr [ %2, %.lr.ph ], [ %55, %52 ]
  %.01315 = phi i64 [ 0, %.lr.ph ], [ %53, %52 ]
  %.val.i = load i64, ptr %7, align 8
  %.not.i.i = icmp eq i64 %.val.i, 0
  br i1 %.not.i.i, label %_ZNK5faiss12_GLOBAL__N_110DCTemplateINS0_13QuantizerFP16ILi1EEENS0_12SimilarityL2ILi1EEELi1EE13query_to_codeEPKh.exit, label %.lr.ph.i.preheader.i

.lr.ph.i.preheader.i:                             ; preds = %12
  %13 = load ptr, ptr %8, align 8
  br label %.lr.ph.i.i

.lr.ph.i.i:                                       ; preds = %.lr.ph.i.i, %.lr.ph.i.preheader.i
  %.04.i.i = phi i64 [ %38, %.lr.ph.i.i ], [ 0, %.lr.ph.i.preheader.i ]
  %.sroa.5.03.i.i = phi float [ %37, %.lr.ph.i.i ], [ 0.000000e+00, %.lr.ph.i.preheader.i ]
  %.sroa.2.02.i.i = phi ptr [ %34, %.lr.ph.i.i ], [ %13, %.lr.ph.i.preheader.i ]
  %sext.i.i = shl i64 %.04.i.i, 32
  %14 = ashr exact i64 %sext.i.i, 32
  %15 = getelementptr inbounds i16, ptr %.017, i64 %14
  %16 = load i16, ptr %15, align 2
  %17 = zext i16 %16 to i32
  %18 = shl nuw nsw i32 %17, 13
  %19 = and i32 %18, 268427264
  %20 = and i32 %18, 260046848
  %21 = add nuw nsw i32 %19, 939524096
  %22 = or i32 %18, 1879048192
  %23 = add nuw nsw i32 %19, 947912704
  %24 = bitcast i32 %23 to float
  %25 = fadd float %24, 0xBF10000000000000
  %26 = bitcast float %25 to i32
  %27 = icmp eq i32 %20, 0
  %28 = select i1 %27, i32 %26, i32 %21
  %.signext.i.i.i = sext i16 %16 to i32
  %29 = and i32 %.signext.i.i.i, -2147483648
  %30 = icmp eq i32 %20, 260046848
  %31 = select i1 %30, i32 %22, i32 %28
  %32 = or i32 %31, %29
  %33 = bitcast i32 %32 to float
  %34 = getelementptr inbounds i8, ptr %.sroa.2.02.i.i, i64 4
  %35 = load float, ptr %.sroa.2.02.i.i, align 4
  %36 = fsub float %35, %33
  %37 = tail call float @llvm.fmuladd.f32(float %36, float %36, float %.sroa.5.03.i.i)
  %38 = add nuw i64 %.04.i.i, 1
  %exitcond.not.i.i = icmp eq i64 %38, %.val.i
  br i1 %exitcond.not.i.i, label %_ZNK5faiss12_GLOBAL__N_110DCTemplateINS0_13QuantizerFP16ILi1EEENS0_12SimilarityL2ILi1EEELi1EE13query_to_codeEPKh.exit, label %.lr.ph.i.i, !llvm.loop !55

_ZNK5faiss12_GLOBAL__N_110DCTemplateINS0_13QuantizerFP16ILi1EEENS0_12SimilarityL2ILi1EEELi1EE13query_to_codeEPKh.exit: ; preds = %.lr.ph.i.i, %12
  %.sroa.5.0.lcssa.i.i = phi float [ 0.000000e+00, %12 ], [ %37, %.lr.ph.i.i ]
  %39 = fcmp olt float %.sroa.5.0.lcssa.i.i, %4
  br i1 %39, label %40, label %52

40:                                               ; preds = %_ZNK5faiss12_GLOBAL__N_110DCTemplateINS0_13QuantizerFP16ILi1EEENS0_12SimilarityL2ILi1EEELi1EE13query_to_codeEPKh.exit
  %41 = load i8, ptr %9, align 1
  %42 = and i8 %41, 1
  %.not = icmp eq i8 %42, 0
  br i1 %.not, label %47, label %43

43:                                               ; preds = %40
  %44 = load i64, ptr %10, align 8
  %45 = shl i64 %44, 32
  %46 = or i64 %45, %.01315
  br label %50

47:                                               ; preds = %40
  %48 = getelementptr inbounds i64, ptr %3, i64 %.01315
  %49 = load i64, ptr %48, align 8
  br label %50

50:                                               ; preds = %47, %43
  %51 = phi i64 [ %46, %43 ], [ %49, %47 ]
  tail call void @_ZN5faiss16RangeQueryResult3addEfl(ptr noundef nonnull align 8 dereferenceable(24) %5, float noundef %.sroa.5.0.lcssa.i.i, i64 noundef %51)
  br label %52

52:                                               ; preds = %_ZNK5faiss12_GLOBAL__N_110DCTemplateINS0_13QuantizerFP16ILi1EEENS0_12SimilarityL2ILi1EEELi1EE13query_to_codeEPKh.exit, %50
  %53 = add nuw i64 %.01315, 1
  %54 = load i64, ptr %11, align 8
  %55 = getelementptr inbounds i8, ptr %.017, i64 %54
  %exitcond.not = icmp eq i64 %53, %1
  br i1 %exitcond.not, label %._crit_edge, label %12, !llvm.loop !112

._crit_edge:                                      ; preds = %52, %6
  ret void
}